target datalayout = "e-m:e-p270:32:32-p271:32:32-p272:64:64-i64:64-i128:128-f80:128-n8:16:32:64-S128"
target triple = "x86_64-pc-linux-gnu"

%struct.tls13groupselection_test_st = type { ptr, ptr, i32, ptr, i32 }

@.str = private unnamed_addr constant [43 x i8] c"../openssl/test/tls13groupselection_test.c\00", align 1
@.str.4 = private unnamed_addr constant [28 x i8] c"==> Running TLSv1.3 test %d\00", align 1
@.str.5 = private unnamed_addr constant [15 x i8] c"SYNTAX_FAILURE\00", align 1
@.str.6 = private unnamed_addr constant [20 x i8] c"NEGOTIATION_FAILURE\00", align 1
@.str.7 = private unnamed_addr constant [61 x i8] c"====> [ERROR] TLSv1.3 test %d with WORK_ON_SSL_OBJECT failed\00", align 1
@.str.8 = private unnamed_addr constant [58 x i8] c"====> [ERROR] TLSv1.3 test %d with WORK_ON_CONTEXT failed\00", align 1

; Function Attrs: nounwind uwtable
define internal i32 @tls13groupselection_test(i32 noundef %0) #0 {
  %2 = alloca i32, align 4
  %3 = alloca i32, align 4
  %4 = alloca i32, align 4
  %5 = alloca i32, align 4
  store i32 %0, ptr %2, align 4, !tbaa !9
  call void @llvm.lifetime.start.p0(i64 4, ptr %3) #5
  store i32 1, ptr %3, align 4, !tbaa !9
  call void @llvm.lifetime.start.p0(i64 4, ptr %4) #5
  store i32 0, ptr %4, align 4, !tbaa !9
  call void @llvm.lifetime.start.p0(i64 4, ptr %5) #5
  store i32 1, ptr %5, align 4, !tbaa !9
  %6 = load i32, ptr %2, align 4, !tbaa !9
  call void (ptr, i32, ptr, ...) @test_info(ptr noundef @.str, i32 noundef 504, ptr noundef @.str.4, i32 noundef %6)
  %7 = load i32, ptr %2, align 4, !tbaa !9
  %8 = sext i32 %7 to i64
  %9 = getelementptr inbounds [43 x %struct.tls13groupselection_test_st], ptr @tls13groupselection_tests, i64 0, i64 %8
  %10 = getelementptr inbounds nuw %struct.tls13groupselection_test_st, ptr %9, i32 0, i32 3
  %11 = load ptr, ptr %10, align 8, !tbaa !11
  %12 = call i32 @strncmp(ptr noundef %11, ptr noundef @.str.5, i64 noundef 15) #6
  %13 = icmp eq i32 %12, 0
  br i1 %13, label %14, label %15

14:                                               ; preds = %1
  store i32 2, ptr %5, align 4, !tbaa !9
  br label %25

15:                                               ; preds = %1
  %16 = load i32, ptr %2, align 4, !tbaa !9
  %17 = sext i32 %16 to i64
  %18 = getelementptr inbounds [43 x %struct.tls13groupselection_test_st], ptr @tls13groupselection_tests, i64 0, i64 %17
  %19 = getelementptr inbounds nuw %struct.tls13groupselection_test_st, ptr %18, i32 0, i32 3
  %20 = load ptr, ptr %19, align 8, !tbaa !11
  %21 = call i32 @strncmp(ptr noundef %20, ptr noundef @.str.6, i64 noundef 20) #6
  %22 = icmp eq i32 %21, 0
  br i1 %22, label %23, label %24

23:                                               ; preds = %15
  store i32 0, ptr %5, align 4, !tbaa !9
  br label %24

24:                                               ; preds = %23, %15
  br label %25

25:                                               ; preds = %24, %14
  %26 = load i32, ptr %5, align 4, !tbaa !9
  %27 = icmp eq i32 %26, 2
  br i1 %27, label %28, label %33

28:                                               ; preds = %25
  %29 = load i32, ptr %2, align 4, !tbaa !9
  %30 = sext i32 %29 to i64
  %31 = getelementptr inbounds [43 x %struct.tls13groupselection_test_st], ptr @tls13groupselection_tests, i64 0, i64 %30
  %32 = call i32 @test_invalidsyntax(ptr noundef %31, i32 noundef 1)
  store i32 %32, ptr %4, align 4, !tbaa !9
  br label %39

33:                                               ; preds = %25
  %34 = load i32, ptr %2, align 4, !tbaa !9
  %35 = sext i32 %34 to i64
  %36 = getelementptr inbounds [43 x %struct.tls13groupselection_test_st], ptr @tls13groupselection_tests, i64 0, i64 %35
  %37 = load i32, ptr %5, align 4, !tbaa !9
  %38 = call i32 @test_groupnegotiation(ptr noundef %36, i32 noundef 1, i32 noundef %37)
  store i32 %38, ptr %4, align 4, !tbaa !9
  br label %39

39:                                               ; preds = %33, %28
  %40 = load i32, ptr %4, align 4, !tbaa !9
  %41 = icmp ne i32 %40, 0
  br i1 %41, label %44, label %42

42:                                               ; preds = %39
  %43 = load i32, ptr %2, align 4, !tbaa !9
  call void (ptr, i32, ptr, ...) @test_error(ptr noundef @.str, i32 noundef 521, ptr noundef @.str.7, i32 noundef %43)
  br label %44

44:                                               ; preds = %42, %39
  %45 = load i32, ptr %4, align 4, !tbaa !9
  %46 = load i32, ptr %3, align 4, !tbaa !9
  %47 = mul nsw i32 %46, %45
  store i32 %47, ptr %3, align 4, !tbaa !9
  %48 = load i32, ptr %5, align 4, !tbaa !9
  %49 = icmp eq i32 %48, 2
  br i1 %49, label %50, label %55

50:                                               ; preds = %44
  %51 = load i32, ptr %2, align 4, !tbaa !9
  %52 = sext i32 %51 to i64
  %53 = getelementptr inbounds [43 x %struct.tls13groupselection_test_st], ptr @tls13groupselection_tests, i64 0, i64 %52
  %54 = call i32 @test_invalidsyntax(ptr noundef %53, i32 noundef 0)
  store i32 %54, ptr %4, align 4, !tbaa !9
  br label %61

55:                                               ; preds = %44
  %56 = load i32, ptr %2, align 4, !tbaa !9
  %57 = sext i32 %56 to i64
  %58 = getelementptr inbounds [43 x %struct.tls13groupselection_test_st], ptr @tls13groupselection_tests, i64 0, i64 %57
  %59 = load i32, ptr %5, align 4, !tbaa !9
  %60 = call i32 @test_groupnegotiation(ptr noundef %58, i32 noundef 0, i32 noundef %59)
  store i32 %60, ptr %4, align 4, !tbaa !9
  br label %61

61:                                               ; preds = %55, %50
  %62 = load i32, ptr %4, align 4, !tbaa !9
  %63 = icmp ne i32 %62, 0
  br i1 %63, label %66, label %64

64:                                               ; preds = %61
  %65 = load i32, ptr %2, align 4, !tbaa !9
  call void (ptr, i32, ptr, ...) @test_error(ptr noundef @.str, i32 noundef 532, ptr noundef @.str.8, i32 noundef %65)
  br label %66

66:                                               ; preds = %64, %61
  %67 = load i32, ptr %4, align 4, !tbaa !9
  %68 = load i32, ptr %3, align 4, !tbaa !9
  %69 = mul nsw i32 %68, %67
  store i32 %69, ptr %3, align 4, !tbaa !9
  %70 = load i32, ptr %3, align 4, !tbaa !9
  call void @llvm.lifetime.end.p0(i64 4, ptr %5) #5
  call void @llvm.lifetime.end.p0(i64 4, ptr %4) #5
  call void @llvm.lifetime.end.p0(i64 4, ptr %3) #5
  ret i32 %70
}