; Function Attrs: nounwind uwtable
define internal range(i32 0, 2) i32 @tls13groupselection_test(i32 noundef %0) #0 {
  tail call void (ptr, i32, ptr, ...) @test_info(ptr noundef nonnull @.str, i32 noundef 504, ptr noundef nonnull @.str.4, i32 noundef %0) #6
  %2 = sext i32 %0 to i64
  %3 = getelementptr inbounds [43 x %struct.tls13groupselection_test_st], ptr @tls13groupselection_tests, i64 0, i64 %2
  %4 = getelementptr inbounds nuw i8, ptr %3, i64 24
  %5 = load ptr, ptr %4, align 8, !tbaa !9
  %6 = tail call i32 @strncmp(ptr noundef nonnull dereferenceable(1) %5, ptr noundef nonnull dereferenceable(15) @.str.5, i64 noundef 15) #7
  %7 = icmp eq i32 %6, 0
  br i1 %7, label %8, label %10

8:                                                ; preds = %1
  %.val = load ptr, ptr %3, align 8, !tbaa !12
  %9 = tail call fastcc i32 @test_invalidsyntax(ptr %.val, i32 noundef 1)
  br label %14

10:                                               ; preds = %1
  %11 = tail call i32 @strncmp(ptr noundef nonnull dereferenceable(1) %5, ptr noundef nonnull dereferenceable(20) @.str.6, i64 noundef 20) #7
  %12 = icmp ne i32 %11, 0
  %spec.select = zext i1 %12 to i32
  %13 = tail call fastcc i32 @test_groupnegotiation(ptr noundef nonnull %3, i32 noundef 1, i32 noundef %spec.select)
  br label %14

14:                                               ; preds = %10, %8
  %.024 = phi i32 [ 2, %8 ], [ %spec.select, %10 ]
  %.020 = phi i32 [ %9, %8 ], [ %13, %10 ]
  %.not = icmp eq i32 %.020, 0
  br i1 %.not, label %15, label %16

15:                                               ; preds = %14
  tail call void (ptr, i32, ptr, ...) @test_error(ptr noundef nonnull @.str, i32 noundef 521, ptr noundef nonnull @.str.7, i32 noundef %0) #6
  br label %16

16:                                               ; preds = %15, %14
  br i1 %7, label %17, label %19

17:                                               ; preds = %16
  %.val22 = load ptr, ptr %3, align 8, !tbaa !12
  %18 = tail call fastcc i32 @test_invalidsyntax(ptr %.val22, i32 noundef 0)
  br label %21

19:                                               ; preds = %16
  %20 = tail call fastcc i32 @test_groupnegotiation(ptr noundef nonnull %3, i32 noundef 0, i32 noundef %.024)
  br label %21

21:                                               ; preds = %19, %17
  %.1 = phi i32 [ %18, %17 ], [ %20, %19 ]
  %.not21 = icmp eq i32 %.1, 0
  br i1 %.not21, label %22, label %23

22:                                               ; preds = %21
  tail call void (ptr, i32, ptr, ...) @test_error(ptr noundef nonnull @.str, i32 noundef 532, ptr noundef nonnull @.str.8, i32 noundef %0) #6
  br label %23

23:                                               ; preds = %22, %21
  %24 = mul nuw nsw i32 %.1, %.020
  ret i32 %24
}